target datalayout = "e-m:e-p270:32:32-p271:32:32-p272:64:64-i64:64-i128:128-f80:128-n8:16:32:64-S128"
target triple = "x86_64-pc-linux-gnu"

%struct.bbcode_s = type { ptr, i64, i64, ptr, i64, i64, ptr, ptr, ptr, ptr, ptr }
%struct.stringbuf_s = type { ptr, i64, i64, ptr }

@.str.3 = private unnamed_addr constant [1 x i8] zeroinitializer, align 1

; Function Attrs: inlinehint nounwind uwtable
define internal i64 @to_size_t(i64 noundef %0) #4 {
  %2 = alloca i64, align 8
  store i64 %0, ptr %2, align 8, !tbaa !9
  %3 = load i64, ptr %2, align 8, !tbaa !9
  %4 = icmp sge i64 %3, 0
  br i1 %4, label %5, label %7

5:                                                ; preds = %1
  %6 = load i64, ptr %2, align 8, !tbaa !9
  br label %8

7:                                                ; preds = %1
  br label %8

8:                                                ; preds = %7, %5
  %9 = phi i64 [ %6, %5 ], [ 0, %7 ]
  ret i64 %9
}

; Function Attrs: nounwind uwtable
define internal void @ic_memmove(ptr noundef %0, ptr noundef %1, i64 noundef %2) #0 {
  %4 = alloca ptr, align 8
  %5 = alloca ptr, align 8
  %6 = alloca i64, align 8
  store ptr %0, ptr %4, align 8, !tbaa !51
  store ptr %1, ptr %5, align 8, !tbaa !51
  store i64 %2, ptr %6, align 8, !tbaa !9
  %7 = load i64, ptr %6, align 8, !tbaa !9
  %8 = icmp sle i64 %7, 0
  br i1 %8, label %9, label %10

9:                                                ; preds = %3
  br label %15

10:                                               ; preds = %3
  %11 = load ptr, ptr %4, align 8, !tbaa !51
  %12 = load ptr, ptr %5, align 8, !tbaa !51
  %13 = load i64, ptr %6, align 8, !tbaa !9
  %14 = call i64 @to_size_t(i64 noundef %13)
  call void @llvm.memmove.p0.p0.i64(ptr align 1 %11, ptr align 1 %12, i64 %14, i1 false)
  br label %15

15:                                               ; preds = %10, %9
  ret void
}

; Function Attrs: inlinehint nounwind uwtable
define internal i64 @to_ssize_t(i64 noundef %0) #4 {
  %2 = alloca i64, align 8
  store i64 %0, ptr %2, align 8, !tbaa !9
  %3 = load i64, ptr %2, align 8, !tbaa !9
  %4 = icmp ule i64 %3, 9223372036854775807
  br i1 %4, label %5, label %7

5:                                                ; preds = %1
  %6 = load i64, ptr %2, align 8, !tbaa !9
  br label %8

7:                                                ; preds = %1
  br label %8

8:                                                ; preds = %7, %5
  %9 = phi i64 [ %6, %5 ], [ 0, %7 ]
  ret i64 %9
}

; Function Attrs: nounwind uwtable
define internal void @sbuf_delete_at(ptr noundef %0, i64 noundef %1, i64 noundef %2) #0 {
  %4 = alloca ptr, align 8
  %5 = alloca i64, align 8
  %6 = alloca i64, align 8
  store ptr %0, ptr %4, align 8, !tbaa !31
  store i64 %1, ptr %5, align 8, !tbaa !9
  store i64 %2, ptr %6, align 8, !tbaa !9
  %7 = load i64, ptr %5, align 8, !tbaa !9
  %8 = icmp slt i64 %7, 0
  br i1 %8, label %15, label %9

9:                                                ; preds = %3
  %10 = load i64, ptr %5, align 8, !tbaa !9
  %11 = load ptr, ptr %4, align 8, !tbaa !31
  %12 = getelementptr inbounds nuw %struct.stringbuf_s, ptr %11, i32 0, i32 2
  %13 = load i64, ptr %12, align 8, !tbaa !42
  %14 = icmp sge i64 %10, %13
  br i1 %14, label %15, label %16

15:                                               ; preds = %9, %3
  br label %62

16:                                               ; preds = %9
  %17 = load i64, ptr %5, align 8, !tbaa !9
  %18 = load i64, ptr %6, align 8, !tbaa !9
  %19 = add nsw i64 %17, %18
  %20 = load ptr, ptr %4, align 8, !tbaa !31
  %21 = getelementptr inbounds nuw %struct.stringbuf_s, ptr %20, i32 0, i32 2
  %22 = load i64, ptr %21, align 8, !tbaa !42
  %23 = icmp sgt i64 %19, %22
  br i1 %23, label %24, label %30

24:                                               ; preds = %16
  %25 = load ptr, ptr %4, align 8, !tbaa !31
  %26 = getelementptr inbounds nuw %struct.stringbuf_s, ptr %25, i32 0, i32 2
  %27 = load i64, ptr %26, align 8, !tbaa !42
  %28 = load i64, ptr %5, align 8, !tbaa !9
  %29 = sub nsw i64 %27, %28
  store i64 %29, ptr %6, align 8, !tbaa !9
  br label %30

30:                                               ; preds = %24, %16
  %31 = load ptr, ptr %4, align 8, !tbaa !31
  %32 = getelementptr inbounds nuw %struct.stringbuf_s, ptr %31, i32 0, i32 0
  %33 = load ptr, ptr %32, align 8, !tbaa !223
  %34 = load i64, ptr %5, align 8, !tbaa !9
  %35 = getelementptr inbounds i8, ptr %33, i64 %34
  %36 = load ptr, ptr %4, align 8, !tbaa !31
  %37 = getelementptr inbounds nuw %struct.stringbuf_s, ptr %36, i32 0, i32 0
  %38 = load ptr, ptr %37, align 8, !tbaa !223
  %39 = load i64, ptr %5, align 8, !tbaa !9
  %40 = getelementptr inbounds i8, ptr %38, i64 %39
  %41 = load i64, ptr %6, align 8, !tbaa !9
  %42 = getelementptr inbounds i8, ptr %40, i64 %41
  %43 = load ptr, ptr %4, align 8, !tbaa !31
  %44 = getelementptr inbounds nuw %struct.stringbuf_s, ptr %43, i32 0, i32 2
  %45 = load i64, ptr %44, align 8, !tbaa !42
  %46 = load i64, ptr %5, align 8, !tbaa !9
  %47 = sub nsw i64 %45, %46
  %48 = load i64, ptr %6, align 8, !tbaa !9
  %49 = sub nsw i64 %47, %48
  call void @ic_memmove(ptr noundef %35, ptr noundef %42, i64 noundef %49)
  %50 = load i64, ptr %6, align 8, !tbaa !9
  %51 = load ptr, ptr %4, align 8, !tbaa !31
  %52 = getelementptr inbounds nuw %struct.stringbuf_s, ptr %51, i32 0, i32 2
  %53 = load i64, ptr %52, align 8, !tbaa !42
  %54 = sub nsw i64 %53, %50
  store i64 %54, ptr %52, align 8, !tbaa !42
  %55 = load ptr, ptr %4, align 8, !tbaa !31
  %56 = getelementptr inbounds nuw %struct.stringbuf_s, ptr %55, i32 0, i32 0
  %57 = load ptr, ptr %56, align 8, !tbaa !223
  %58 = load ptr, ptr %4, align 8, !tbaa !31
  %59 = getelementptr inbounds nuw %struct.stringbuf_s, ptr %58, i32 0, i32 2
  %60 = load i64, ptr %59, align 8, !tbaa !42
  %61 = getelementptr inbounds i8, ptr %57, i64 %60
  store i8 0, ptr %61, align 1, !tbaa !13
  br label %62

62:                                               ; preds = %30, %15
  ret void
}

; Function Attrs: nounwind uwtable
define internal i64 @sbuf_len(ptr noundef %0) #0 {
  %2 = alloca i64, align 8
  %3 = alloca ptr, align 8
  store ptr %0, ptr %3, align 8, !tbaa !31
  %4 = load ptr, ptr %3, align 8, !tbaa !31
  %5 = icmp eq ptr %4, null
  br i1 %5, label %6, label %7

6:                                                ; preds = %1
  store i64 0, ptr %2, align 8
  br label %11

7:                                                ; preds = %1
  %8 = load ptr, ptr %3, align 8, !tbaa !31
  %9 = getelementptr inbounds nuw %struct.stringbuf_s, ptr %8, i32 0, i32 2
  %10 = load i64, ptr %9, align 8, !tbaa !42
  store i64 %10, ptr %2, align 8
  br label %11

11:                                               ; preds = %7, %6
  %12 = load i64, ptr %2, align 8
  ret i64 %12
}

; Function Attrs: nounwind uwtable
define internal ptr @sbuf_string_at(ptr noundef %0, i64 noundef %1) #0 {
  %3 = alloca ptr, align 8
  %4 = alloca ptr, align 8
  %5 = alloca i64, align 8
  store ptr %0, ptr %4, align 8, !tbaa !31
  store i64 %1, ptr %5, align 8, !tbaa !9
  %6 = load i64, ptr %5, align 8, !tbaa !9
  %7 = icmp slt i64 %6, 0
  br i1 %7, label %14, label %8

8:                                                ; preds = %2
  %9 = load ptr, ptr %4, align 8, !tbaa !31
  %10 = getelementptr inbounds nuw %struct.stringbuf_s, ptr %9, i32 0, i32 2
  %11 = load i64, ptr %10, align 8, !tbaa !42
  %12 = load i64, ptr %5, align 8, !tbaa !9
  %13 = icmp slt i64 %11, %12
  br i1 %13, label %14, label %15

14:                                               ; preds = %8, %2
  store ptr null, ptr %3, align 8
  br label %27

15:                                               ; preds = %8
  %16 = load ptr, ptr %4, align 8, !tbaa !31
  %17 = getelementptr inbounds nuw %struct.stringbuf_s, ptr %16, i32 0, i32 0
  %18 = load ptr, ptr %17, align 8, !tbaa !223
  %19 = icmp eq ptr %18, null
  br i1 %19, label %20, label %21

20:                                               ; preds = %15
  store ptr @.str.3, ptr %3, align 8
  br label %27

21:                                               ; preds = %15
  %22 = load ptr, ptr %4, align 8, !tbaa !31
  %23 = getelementptr inbounds nuw %struct.stringbuf_s, ptr %22, i32 0, i32 0
  %24 = load ptr, ptr %23, align 8, !tbaa !223
  %25 = load i64, ptr %5, align 8, !tbaa !9
  %26 = getelementptr inbounds i8, ptr %24, i64 %25
  store ptr %26, ptr %3, align 8
  br label %27

27:                                               ; preds = %21, %20, %14
  %28 = load ptr, ptr %3, align 8
  ret ptr %28
}

; Function Attrs: nounwind uwtable
define internal i64 @str_column_width_n(ptr noundef %0, i64 noundef %1) #0 {
  %3 = alloca i64, align 8
  %4 = alloca ptr, align 8
  %5 = alloca i64, align 8
  %6 = alloca i64, align 8
  %7 = alloca i64, align 8
  %8 = alloca i64, align 8
  %9 = alloca i64, align 8
  store ptr %0, ptr %4, align 8, !tbaa !11
  store i64 %1, ptr %5, align 8, !tbaa !9
  %10 = load ptr, ptr %4, align 8, !tbaa !11
  %11 = icmp eq ptr %10, null
  br i1 %11, label %15, label %12

12:                                               ; preds = %2
  %13 = load i64, ptr %5, align 8, !tbaa !9
  %14 = icmp sle i64 %13, 0
  br i1 %14, label %15, label %16

15:                                               ; preds = %12, %2
  store i64 0, ptr %3, align 8
  br label %41

16:                                               ; preds = %12
  call void @llvm.lifetime.start.p0(i64 8, ptr %6) #13
  store i64 0, ptr %6, align 8, !tbaa !9
  call void @llvm.lifetime.start.p0(i64 8, ptr %7) #13
  store i64 0, ptr %7, align 8, !tbaa !9
  call void @llvm.lifetime.start.p0(i64 8, ptr %8) #13
  call void @llvm.lifetime.start.p0(i64 8, ptr %9) #13
  br label %17

17:                                               ; preds = %32, %16
  %18 = load ptr, ptr %4, align 8, !tbaa !11
  %19 = load i64, ptr %6, align 8, !tbaa !9
  %20 = getelementptr inbounds i8, ptr %18, i64 %19
  %21 = load i8, ptr %20, align 1, !tbaa !13
  %22 = sext i8 %21 to i32
  %23 = icmp ne i32 %22, 0
  br i1 %23, label %24, label %30

24:                                               ; preds = %17
  %25 = load ptr, ptr %4, align 8, !tbaa !11
  %26 = load i64, ptr %5, align 8, !tbaa !9
  %27 = load i64, ptr %6, align 8, !tbaa !9
  %28 = call i64 @str_next_ofs(ptr noundef %25, i64 noundef %26, i64 noundef %27, ptr noundef %8)
  store i64 %28, ptr %9, align 8, !tbaa !9
  %29 = icmp sgt i64 %28, 0
  br label %30

30:                                               ; preds = %24, %17
  %31 = phi i1 [ false, %17 ], [ %29, %24 ]
  br i1 %31, label %32, label %39

32:                                               ; preds = %30
  %33 = load i64, ptr %8, align 8, !tbaa !9
  %34 = load i64, ptr %7, align 8, !tbaa !9
  %35 = add nsw i64 %34, %33
  store i64 %35, ptr %7, align 8, !tbaa !9
  %36 = load i64, ptr %9, align 8, !tbaa !9
  %37 = load i64, ptr %6, align 8, !tbaa !9
  %38 = add nsw i64 %37, %36
  store i64 %38, ptr %6, align 8, !tbaa !9
  br label %17, !llvm.loop !247

39:                                               ; preds = %30
  %40 = load i64, ptr %7, align 8, !tbaa !9
  store i64 %40, ptr %3, align 8
  call void @llvm.lifetime.end.p0(i64 8, ptr %9) #13
  call void @llvm.lifetime.end.p0(i64 8, ptr %8) #13
  call void @llvm.lifetime.end.p0(i64 8, ptr %7) #13
  call void @llvm.lifetime.end.p0(i64 8, ptr %6) #13
  br label %41

41:                                               ; preds = %39, %15
  %42 = load i64, ptr %3, align 8
  ret i64 %42
}

; Function Attrs: nounwind uwtable
define internal i64 @ic_strlen(ptr noundef %0) #0 {
  %2 = alloca i64, align 8
  %3 = alloca ptr, align 8
  store ptr %0, ptr %3, align 8, !tbaa !11
  %4 = load ptr, ptr %3, align 8, !tbaa !11
  %5 = icmp eq ptr %4, null
  br i1 %5, label %6, label %7

6:                                                ; preds = %1
  store i64 0, ptr %2, align 8
  br label %11

7:                                                ; preds = %1
  %8 = load ptr, ptr %3, align 8, !tbaa !11
  %9 = call i64 @strlen(ptr noundef %8) #14
  %10 = call i64 @to_ssize_t(i64 noundef %9)
  store i64 %10, ptr %2, align 8
  br label %11

11:                                               ; preds = %7, %6
  %12 = load i64, ptr %2, align 8
  ret i64 %12
}

; Function Attrs: nounwind uwtable
define internal void @sbuf_clear(ptr noundef %0) #0 {
  %2 = alloca ptr, align 8
  store ptr %0, ptr %2, align 8, !tbaa !31
  %3 = load ptr, ptr %2, align 8, !tbaa !31
  %4 = load ptr, ptr %2, align 8, !tbaa !31
  %5 = call i64 @sbuf_len(ptr noundef %4)
  call void @sbuf_delete_at(ptr noundef %3, i64 noundef 0, i64 noundef %5)
  ret void
}

; Function Attrs: nounwind uwtable
define internal ptr @sbuf_string(ptr noundef %0) #0 {
  %2 = alloca ptr, align 8
  store ptr %0, ptr %2, align 8, !tbaa !31
  %3 = load ptr, ptr %2, align 8, !tbaa !31
  %4 = call ptr @sbuf_string_at(ptr noundef %3, i64 noundef 0)
  ret ptr %4
}

; Function Attrs: nounwind uwtable
define internal i64 @str_column_width(ptr noundef %0) #0 {
  %2 = alloca ptr, align 8
  store ptr %0, ptr %2, align 8, !tbaa !11
  %3 = load ptr, ptr %2, align 8, !tbaa !11
  %4 = load ptr, ptr %2, align 8, !tbaa !11
  %5 = call i64 @ic_strlen(ptr noundef %4)
  %6 = call i64 @str_column_width_n(ptr noundef %3, i64 noundef %5)
  ret i64 %6
}

; Function Attrs: nounwind uwtable
define internal i64 @bbcode_column_width(ptr noundef %0, ptr noundef %1) #0 {
  %3 = alloca i64, align 8
  %4 = alloca ptr, align 8
  %5 = alloca ptr, align 8
  %6 = alloca i64, align 8
  store ptr %0, ptr %4, align 8, !tbaa !20
  store ptr %1, ptr %5, align 8, !tbaa !11
  %7 = load ptr, ptr %5, align 8, !tbaa !11
  %8 = icmp eq ptr %7, null
  br i1 %8, label %15, label %9

9:                                                ; preds = %2
  %10 = load ptr, ptr %5, align 8, !tbaa !11
  %11 = getelementptr inbounds i8, ptr %10, i64 0
  %12 = load i8, ptr %11, align 1, !tbaa !13
  %13 = sext i8 %12 to i32
  %14 = icmp eq i32 %13, 0
  br i1 %14, label %15, label %16

15:                                               ; preds = %9, %2
  store i64 0, ptr %3, align 8
  br label %39

16:                                               ; preds = %9
  %17 = load ptr, ptr %4, align 8, !tbaa !20
  %18 = getelementptr inbounds nuw %struct.bbcode_s, ptr %17, i32 0, i32 10
  %19 = load ptr, ptr %18, align 8, !tbaa !136
  %20 = icmp eq ptr %19, null
  br i1 %20, label %21, label %24

21:                                               ; preds = %16
  %22 = load ptr, ptr %5, align 8, !tbaa !11
  %23 = call i64 @str_column_width(ptr noundef %22)
  store i64 %23, ptr %3, align 8
  br label %39

24:                                               ; preds = %16
  %25 = load ptr, ptr %4, align 8, !tbaa !20
  %26 = load ptr, ptr %5, align 8, !tbaa !11
  %27 = load ptr, ptr %4, align 8, !tbaa !20
  %28 = getelementptr inbounds nuw %struct.bbcode_s, ptr %27, i32 0, i32 10
  %29 = load ptr, ptr %28, align 8, !tbaa !136
  call void @bbcode_append(ptr noundef %25, ptr noundef %26, ptr noundef %29, ptr noundef null)
  call void @llvm.lifetime.start.p0(i64 8, ptr %6) #13
  %30 = load ptr, ptr %4, align 8, !tbaa !20
  %31 = getelementptr inbounds nuw %struct.bbcode_s, ptr %30, i32 0, i32 10
  %32 = load ptr, ptr %31, align 8, !tbaa !136
  %33 = call ptr @sbuf_string(ptr noundef %32)
  %34 = call i64 @str_column_width(ptr noundef %33)
  store i64 %34, ptr %6, align 8, !tbaa !9
  %35 = load ptr, ptr %4, align 8, !tbaa !20
  %36 = getelementptr inbounds nuw %struct.bbcode_s, ptr %35, i32 0, i32 10
  %37 = load ptr, ptr %36, align 8, !tbaa !136
  call void @sbuf_clear(ptr noundef %37)
  %38 = load i64, ptr %6, align 8, !tbaa !9
  store i64 %38, ptr %3, align 8
  call void @llvm.lifetime.end.p0(i64 8, ptr %6) #13
  br label %39

39:                                               ; preds = %24, %21, %15
  %40 = load i64, ptr %3, align 8
  ret i64 %40
}