; Function Attrs: nounwind uwtable
define internal fastcc i64 @bbcode_column_width(ptr noundef %0, ptr noundef %1) unnamed_addr #0 {
  %3 = alloca i64, align 8
  %4 = alloca i64, align 8
  %5 = icmp eq ptr %1, null
  br i1 %5, label %str_column_width.exit, label %6

6:                                                ; preds = %2
  %7 = load i8, ptr %1, align 1, !tbaa !4
  %8 = icmp eq i8 %7, 0
  br i1 %8, label %str_column_width.exit, label %9

9:                                                ; preds = %6
  %10 = getelementptr inbounds nuw i8, ptr %0, i64 80
  %11 = load ptr, ptr %10, align 8, !tbaa !130
  %12 = icmp eq ptr %11, null
  br i1 %12, label %ic_strlen.exit.i, label %25

ic_strlen.exit.i:                                 ; preds = %9
  %13 = tail call i64 @strlen(ptr noundef nonnull readonly dereferenceable(1) %1) #33
  %14 = tail call noundef range(i64 0, -9223372036854775808) i64 @llvm.smax.i64(i64 %13, i64 0)
  %15 = icmp slt i64 %13, 1
  br i1 %15, label %str_column_width.exit, label %16

16:                                               ; preds = %ic_strlen.exit.i
  call void @llvm.lifetime.start.p0(i64 8, ptr nonnull %4) #32
  br label %.lr.ph.i.i

.lr.ph.i.i:                                       ; preds = %16, %19
  %.01219.i.i = phi i64 [ %21, %19 ], [ 0, %16 ]
  %.01318.i.i = phi i64 [ %22, %19 ], [ 0, %16 ]
  %17 = call fastcc i64 @str_next_ofs(ptr noundef nonnull %1, i64 noundef %14, i64 noundef %.01318.i.i, ptr noundef nonnull %4)
  %18 = icmp sgt i64 %17, 0
  br i1 %18, label %19, label %.critedge.i.i

19:                                               ; preds = %.lr.ph.i.i
  %20 = load i64, ptr %4, align 8, !tbaa !57
  %21 = add nsw i64 %20, %.01219.i.i
  %22 = add nuw nsw i64 %17, %.01318.i.i
  %23 = getelementptr inbounds nuw i8, ptr %1, i64 %22
  %24 = load i8, ptr %23, align 1, !tbaa !4
  %.not.i.i = icmp eq i8 %24, 0
  br i1 %.not.i.i, label %.critedge.i.i, label %.lr.ph.i.i, !llvm.loop !60

.critedge.i.i:                                    ; preds = %19, %.lr.ph.i.i
  %.012.lcssa.i.i = phi i64 [ %.01219.i.i, %.lr.ph.i.i ], [ %21, %19 ]
  call void @llvm.lifetime.end.p0(i64 8, ptr nonnull %4) #32
  br label %str_column_width.exit

25:                                               ; preds = %9
  tail call fastcc void @bbcode_append(ptr noundef nonnull %0, ptr noundef nonnull %1, ptr noundef %11, ptr noundef null)
  %26 = load ptr, ptr %10, align 8, !tbaa !130
  %27 = getelementptr inbounds nuw i8, ptr %26, i64 16
  %28 = load i64, ptr %27, align 8, !tbaa !40
  %29 = icmp slt i64 %28, 0
  br i1 %29, label %str_column_width.exit, label %ic_strlen.exit.i12

ic_strlen.exit.i12:                               ; preds = %25
  %30 = load ptr, ptr %26, align 8, !tbaa !43
  %31 = icmp eq ptr %30, null
  %spec.select = select i1 %31, ptr @.str.3, ptr %30
  %32 = tail call i64 @strlen(ptr noundef nonnull readonly dereferenceable(1) %spec.select) #33
  %33 = tail call noundef range(i64 0, -9223372036854775808) i64 @llvm.smax.i64(i64 %32, i64 0)
  %34 = icmp slt i64 %32, 1
  br i1 %34, label %str_column_width.exit21.str_column_width.exit21.thread_crit_edge, label %35

35:                                               ; preds = %ic_strlen.exit.i12
  call void @llvm.lifetime.start.p0(i64 8, ptr nonnull %3) #32
  %36 = load i8, ptr %spec.select, align 1, !tbaa !4
  %.not17.i.i13 = icmp eq i8 %36, 0
  br i1 %.not17.i.i13, label %str_column_width.exit21.thread39, label %.lr.ph.i.i14

str_column_width.exit21.thread39:                 ; preds = %35
  call void @llvm.lifetime.end.p0(i64 8, ptr nonnull %3) #32
  br label %str_column_width.exit21.str_column_width.exit21.thread_crit_edge

.lr.ph.i.i14:                                     ; preds = %35, %39
  %.01219.i.i15 = phi i64 [ %41, %39 ], [ 0, %35 ]
  %.01318.i.i16 = phi i64 [ %42, %39 ], [ 0, %35 ]
  %37 = call fastcc i64 @str_next_ofs(ptr noundef nonnull %spec.select, i64 noundef %33, i64 noundef %.01318.i.i16, ptr noundef nonnull %3)
  %38 = icmp sgt i64 %37, 0
  br i1 %38, label %39, label %str_column_width.exit21

39:                                               ; preds = %.lr.ph.i.i14
  %40 = load i64, ptr %3, align 8, !tbaa !57
  %41 = add nsw i64 %40, %.01219.i.i15
  %42 = add nuw nsw i64 %37, %.01318.i.i16
  %43 = getelementptr inbounds nuw i8, ptr %spec.select, i64 %42
  %44 = load i8, ptr %43, align 1, !tbaa !4
  %.not.i.i20 = icmp eq i8 %44, 0
  br i1 %.not.i.i20, label %str_column_width.exit21, label %.lr.ph.i.i14, !llvm.loop !60

str_column_width.exit21:                          ; preds = %39, %.lr.ph.i.i14
  %.012.lcssa.i.i18.ph = phi i64 [ %.01219.i.i15, %.lr.ph.i.i14 ], [ %41, %39 ]
  %.pr.pre.pre = load ptr, ptr %10, align 8, !tbaa !130
  call void @llvm.lifetime.end.p0(i64 8, ptr nonnull %3) #32
  %45 = icmp eq ptr %.pr.pre.pre, null
  br i1 %45, label %.sbuf_len.exit_crit_edge.i, label %str_column_width.exit21.str_column_width.exit21.thread_crit_edge

str_column_width.exit21.str_column_width.exit21.thread_crit_edge: ; preds = %ic_strlen.exit.i12, %str_column_width.exit21.thread39, %str_column_width.exit21
  %.0.i2.i19.ph38 = phi i64 [ %.012.lcssa.i.i18.ph, %str_column_width.exit21 ], [ 0, %str_column_width.exit21.thread39 ], [ 0, %ic_strlen.exit.i12 ]
  %.pr37 = phi ptr [ %.pr.pre.pre, %str_column_width.exit21 ], [ %26, %str_column_width.exit21.thread39 ], [ %26, %ic_strlen.exit.i12 ]
  %.phi.trans.insert = getelementptr inbounds nuw i8, ptr %.pr37, i64 16
  %.pre = load i64, ptr %.phi.trans.insert, align 8, !tbaa !40
  br label %sbuf_len.exit.i

.sbuf_len.exit_crit_edge.i:                       ; preds = %str_column_width.exit21
  %.pre.i = load i64, ptr inttoptr (i64 16 to ptr), align 16, !tbaa !40
  br label %sbuf_len.exit.i

sbuf_len.exit.i:                                  ; preds = %str_column_width.exit21.str_column_width.exit21.thread_crit_edge, %.sbuf_len.exit_crit_edge.i
  %.0.i2.i1928 = phi i64 [ %.012.lcssa.i.i18.ph, %.sbuf_len.exit_crit_edge.i ], [ %.0.i2.i19.ph38, %str_column_width.exit21.str_column_width.exit21.thread_crit_edge ]
  %46 = phi ptr [ null, %.sbuf_len.exit_crit_edge.i ], [ %.pr37, %str_column_width.exit21.str_column_width.exit21.thread_crit_edge ]
  %47 = phi i64 [ %.pre.i, %.sbuf_len.exit_crit_edge.i ], [ %.pre, %str_column_width.exit21.str_column_width.exit21.thread_crit_edge ]
  %.0.i.i22 = phi i64 [ 0, %.sbuf_len.exit_crit_edge.i ], [ %.pre, %str_column_width.exit21.str_column_width.exit21.thread_crit_edge ]
  %48 = getelementptr inbounds nuw i8, ptr %46, i64 16
  %.not.i.i23 = icmp sgt i64 %47, 0
  br i1 %.not.i.i23, label %49, label %str_column_width.exit

49:                                               ; preds = %sbuf_len.exit.i
  %spec.select.i.i24 = call i64 @llvm.smin.i64(i64 %.0.i.i22, i64 %47)
  %50 = sub i64 %47, %spec.select.i.i24
  %51 = icmp slt i64 %50, 1
  %.pre32 = load ptr, ptr %46, align 8, !tbaa !43
  br i1 %51, label %ic_memmove.exit.i.i, label %52

52:                                               ; preds = %49
  %53 = getelementptr inbounds i8, ptr %.pre32, i64 %spec.select.i.i24
  call void @llvm.memmove.p0.p0.i64(ptr align 1 %.pre32, ptr readonly align 1 %53, i64 %50, i1 false)
  %.pre.i.i = load i64, ptr %48, align 8, !tbaa !40
  %.pre2.i = sub nsw i64 %.pre.i.i, %spec.select.i.i24
  %.pre31 = load ptr, ptr %46, align 8, !tbaa !43
  br label %ic_memmove.exit.i.i

ic_memmove.exit.i.i:                              ; preds = %52, %49
  %54 = phi ptr [ %.pre31, %52 ], [ %.pre32, %49 ]
  %.pre-phi.i = phi i64 [ %.pre2.i, %52 ], [ %50, %49 ]
  store i64 %.pre-phi.i, ptr %48, align 8, !tbaa !40
  %55 = getelementptr inbounds i8, ptr %54, i64 %.pre-phi.i
  store i8 0, ptr %55, align 1, !tbaa !4
  br label %str_column_width.exit

str_column_width.exit:                            ; preds = %25, %ic_memmove.exit.i.i, %sbuf_len.exit.i, %.critedge.i.i, %ic_strlen.exit.i, %2, %6
  %.0 = phi i64 [ 0, %6 ], [ 0, %2 ], [ %.012.lcssa.i.i, %.critedge.i.i ], [ 0, %ic_strlen.exit.i ], [ %.0.i2.i1928, %sbuf_len.exit.i ], [ %.0.i2.i1928, %ic_memmove.exit.i.i ], [ 0, %25 ]
  ret i64 %.0
}